target datalayout = "e-m:e-p270:32:32-p271:32:32-p272:64:64-i64:64-i128:128-f80:128-n8:16:32:64-S128"
target triple = "x86_64-unknown-linux-gnu"

%"class.std::__cxx11::basic_string" = type { %"struct.std::__cxx11::basic_string<char>::_Alloc_hider", i64, %union.anon }
%"struct.std::__cxx11::basic_string<char>::_Alloc_hider" = type { ptr }
%union.anon = type { i64, [8 x i8] }
%"struct.ODDLParser::Property" = type { ptr, ptr, ptr, ptr }
%"class.ODDLParser::Value" = type { i32, i64, ptr, ptr }
%"struct.ODDLParser::Text" = type { i64, i64, ptr }

; Function Attrs: mustprogress uwtable
define internal void @_ZN6Assimp7OpenGEXL16propId2StdStringEPN10ODDLParser8PropertyERNSt7__cxx1112basic_stringIcSt11char_traitsIcESaIcEEESA_(ptr noundef %prop, ptr noundef nonnull align 8 dereferenceable(32) %name, ptr noundef nonnull align 8 dereferenceable(32) %key) #4 personality ptr @__gxx_personality_v0 {
entry:
  %prop.addr = alloca ptr, align 8
  %name.addr = alloca ptr, align 8
  %key.addr = alloca ptr, align 8
  %ref.tmp = alloca %"class.std::__cxx11::basic_string", align 8
  %exn.slot = alloca ptr, align 8
  %ehselector.slot = alloca i32, align 4
  store ptr %prop, ptr %prop.addr, align 8
  store ptr %name, ptr %name.addr, align 8
  store ptr %key, ptr %key.addr, align 8
  call void @_ZNSt7__cxx1112basic_stringIcSt11char_traitsIcESaIcEEC1Ev(ptr noundef nonnull align 8 dereferenceable(32) %ref.tmp) #5
  %0 = load ptr, ptr %key.addr, align 8
  %call = call noundef nonnull align 8 dereferenceable(32) ptr @_ZNSt7__cxx1112basic_stringIcSt11char_traitsIcESaIcEEaSEOS4_(ptr noundef nonnull align 8 dereferenceable(32) %0, ptr noundef nonnull align 8 dereferenceable(32) %ref.tmp) #5
  %1 = load ptr, ptr %name.addr, align 8
  %call1 = invoke noundef nonnull align 8 dereferenceable(32) ptr @_ZNSt7__cxx1112basic_stringIcSt11char_traitsIcESaIcEEaSERKS4_(ptr noundef nonnull align 8 dereferenceable(32) %1, ptr noundef nonnull align 8 dereferenceable(32) %call)
          to label %invoke.cont unwind label %lpad

invoke.cont:                                      ; preds = %entry
  call void @_ZNSt7__cxx1112basic_stringIcSt11char_traitsIcESaIcEED1Ev(ptr noundef nonnull align 8 dereferenceable(32) %ref.tmp) #5
  %2 = load ptr, ptr %prop.addr, align 8
  %cmp = icmp eq ptr null, %2
  br i1 %cmp, label %if.then, label %if.end

if.then:                                          ; preds = %invoke.cont
  br label %if.end12

lpad:                                             ; preds = %entry
  %3 = landingpad { ptr, i32 }
          cleanup
  %4 = extractvalue { ptr, i32 } %3, 0
  store ptr %4, ptr %exn.slot, align 8
  %5 = extractvalue { ptr, i32 } %3, 1
  store i32 %5, ptr %ehselector.slot, align 4
  call void @_ZNSt7__cxx1112basic_stringIcSt11char_traitsIcESaIcEED1Ev(ptr noundef nonnull align 8 dereferenceable(32) %ref.tmp) #5
  br label %eh.resume

if.end:                                           ; preds = %invoke.cont
  %6 = load ptr, ptr %prop.addr, align 8
  %m_key = getelementptr inbounds %"struct.ODDLParser::Property", ptr %6, i32 0, i32 0
  %7 = load ptr, ptr %m_key, align 8
  %cmp2 = icmp ne ptr null, %7
  br i1 %cmp2, label %if.then3, label %if.end12

if.then3:                                         ; preds = %if.end
  %8 = load ptr, ptr %prop.addr, align 8
  %m_key4 = getelementptr inbounds %"struct.ODDLParser::Property", ptr %8, i32 0, i32 0
  %9 = load ptr, ptr %m_key4, align 8
  %m_buffer = getelementptr inbounds %"struct.ODDLParser::Text", ptr %9, i32 0, i32 2
  %10 = load ptr, ptr %m_buffer, align 8
  %11 = load ptr, ptr %name.addr, align 8
  %call5 = call noundef nonnull align 8 dereferenceable(32) ptr @_ZNSt7__cxx1112basic_stringIcSt11char_traitsIcESaIcEEaSEPKc(ptr noundef nonnull align 8 dereferenceable(32) %11, ptr noundef %10)
  %12 = load ptr, ptr %prop.addr, align 8
  %m_value = getelementptr inbounds %"struct.ODDLParser::Property", ptr %12, i32 0, i32 1
  %13 = load ptr, ptr %m_value, align 8
  %m_type = getelementptr inbounds %"class.ODDLParser::Value", ptr %13, i32 0, i32 0
  %14 = load i32, ptr %m_type, align 8
  %cmp6 = icmp eq i32 12, %14
  br i1 %cmp6, label %if.then7, label %if.end11

if.then7:                                         ; preds = %if.then3
  %15 = load ptr, ptr %prop.addr, align 8
  %m_value8 = getelementptr inbounds %"struct.ODDLParser::Property", ptr %15, i32 0, i32 1
  %16 = load ptr, ptr %m_value8, align 8
  %call9 = call noundef ptr @_ZNK10ODDLParser5Value9getStringEv(ptr noundef nonnull align 8 dereferenceable(32) %16)
  %17 = load ptr, ptr %key.addr, align 8
  %call10 = call noundef nonnull align 8 dereferenceable(32) ptr @_ZNSt7__cxx1112basic_stringIcSt11char_traitsIcESaIcEEaSEPKc(ptr noundef nonnull align 8 dereferenceable(32) %17, ptr noundef %call9)
  br label %if.end11

if.end11:                                         ; preds = %if.then7, %if.then3
  br label %if.end12

if.end12:                                         ; preds = %if.end11, %if.end, %if.then
  ret void

eh.resume:                                        ; preds = %lpad
  %exn = load ptr, ptr %exn.slot, align 8
  %sel = load i32, ptr %ehselector.slot, align 4
  %lpad.val = insertvalue { ptr, i32 } poison, ptr %exn, 0
  %lpad.val13 = insertvalue { ptr, i32 } %lpad.val, i32 %sel, 1
  resume { ptr, i32 } %lpad.val13
}