; Function Attrs: mustprogress uwtable
define internal fastcc void @_ZN6Assimp7OpenGEXL16propId2StdStringEPN10ODDLParser8PropertyERNSt7__cxx1112basic_stringIcSt11char_traitsIcESaIcEEESA_(ptr nocapture noundef readonly %prop, ptr noundef nonnull align 8 dereferenceable(32) %name, ptr noundef nonnull align 8 dereferenceable(32) %key) unnamed_addr #7 personality ptr @__gxx_personality_v0 {
entry:
  %ref.tmp = alloca %"class.std::__cxx11::basic_string", align 8
  call void @_ZNSt7__cxx1112basic_stringIcSt11char_traitsIcESaIcEEC1Ev(ptr noundef nonnull align 8 dereferenceable(32) %ref.tmp) #25
  %call = call noundef nonnull align 8 dereferenceable(32) ptr @_ZNSt7__cxx1112basic_stringIcSt11char_traitsIcESaIcEEaSEOS4_(ptr noundef nonnull align 8 dereferenceable(32) %key, ptr noundef nonnull align 8 dereferenceable(32) %ref.tmp) #25
  %call1 = invoke noundef nonnull align 8 dereferenceable(32) ptr @_ZNSt7__cxx1112basic_stringIcSt11char_traitsIcESaIcEEaSERKS4_(ptr noundef nonnull align 8 dereferenceable(32) %name, ptr noundef nonnull align 8 dereferenceable(32) %call)
          to label %invoke.cont unwind label %lpad

invoke.cont:                                      ; preds = %entry
  call void @_ZNSt7__cxx1112basic_stringIcSt11char_traitsIcESaIcEED1Ev(ptr noundef nonnull align 8 dereferenceable(32) %ref.tmp) #25
  %0 = load ptr, ptr %prop, align 8
  %cmp2.not = icmp eq ptr %0, null
  br i1 %cmp2.not, label %if.end12, label %if.then3

lpad:                                             ; preds = %entry
  %1 = landingpad { ptr, i32 }
          cleanup
  call void @_ZNSt7__cxx1112basic_stringIcSt11char_traitsIcESaIcEED1Ev(ptr noundef nonnull align 8 dereferenceable(32) %ref.tmp) #25
  resume { ptr, i32 } %1

if.then3:                                         ; preds = %invoke.cont
  %m_buffer = getelementptr inbounds i8, ptr %0, i64 16
  %2 = load ptr, ptr %m_buffer, align 8
  %call5 = call noundef nonnull align 8 dereferenceable(32) ptr @_ZNSt7__cxx1112basic_stringIcSt11char_traitsIcESaIcEEaSEPKc(ptr noundef nonnull align 8 dereferenceable(32) %name, ptr noundef %2)
  %m_value = getelementptr inbounds i8, ptr %prop, i64 8
  %3 = load ptr, ptr %m_value, align 8
  %4 = load i32, ptr %3, align 8
  %cmp6 = icmp eq i32 %4, 12
  br i1 %cmp6, label %if.then7, label %if.end12

if.then7:                                         ; preds = %if.then3
  %call9 = call noundef ptr @_ZNK10ODDLParser5Value9getStringEv(ptr noundef nonnull align 8 dereferenceable(32) %3)
  %call10 = call noundef nonnull align 8 dereferenceable(32) ptr @_ZNSt7__cxx1112basic_stringIcSt11char_traitsIcESaIcEEaSEPKc(ptr noundef nonnull align 8 dereferenceable(32) %key, ptr noundef %call9)
  br label %if.end12

if.end12:                                         ; preds = %if.then3, %if.then7, %invoke.cont
  ret void
}